target datalayout = "e-m:e-p270:32:32-p271:32:32-p272:64:64-i64:64-i128:128-f80:128-n8:16:32:64-S128"
target triple = "x86_64-pc-linux-gnu"

%struct.expert_field = type { i32, i32 }
%struct.nstime_t = type { i64, i32 }

@hf_uftp_congctrl = internal global i32 0, align 4
@hf_uftp_congctrl_func = internal global i32 0, align 4
@hf_uftp_congctrl_hlen = internal global i32 0, align 4
@hf_uftp_congctrl_reserved = internal global i32 0, align 4
@hf_uftp_congctrl_cc_seq = internal global i32 0, align 4
@hf_uftp_congctrl_cc_rate = internal global i32 0, align 4
@hf_uftp_congctrl_tstamp = internal global i32 0, align 4
@hf_uftp_congctrl_cclist = internal global i32 0, align 4
@hf_uftp_congctrl_item = internal global i32 0, align 4
@hf_uftp_congctrl_item_destid = internal global i32 0, align 4
@hf_uftp_congctrl_item_flags = internal global i32 0, align 4
@hf_uftp_congctrl_item_rtt = internal global i32 0, align 4
@hf_uftp_congctrl_item_rate = internal global i32 0, align 4
@ett_uftp_congctrl = internal global i32 0, align 4
@ett_uftp_congctrl_cclist = internal global i32 0, align 4
@ett_uftp_congctrl_item = internal global i32 0, align 4
@ett_uftp_congctrl_item_flags = internal global i32 0, align 4
@ei_uftp_length_invalid = internal global %struct.expert_field zeroinitializer, align 4
@.str.416 = private unnamed_addr constant [19 x i8] c"Invalid length: %d\00", align 1
@.str.417 = private unnamed_addr constant [36 x i8] c"Invalid length, len = %d, hlen = %d\00", align 1
@.str.418 = private unnamed_addr constant [14 x i8] c"%d bytes (%d)\00", align 1
@cc_item_flags = internal constant [6 x ptr] [ptr @hf_uftp_congctrl_item_flags_clr, ptr @hf_uftp_congctrl_item_flags_rtt, ptr @hf_uftp_congctrl_item_flags_start, ptr @hf_uftp_congctrl_item_flags_leave, ptr @hf_uftp_congctrl_item_flags_reserved, ptr null], align 16

; Function Attrs: nounwind null_pointer_is_valid sspstrong uwtable
define internal double @unquantize_grtt(i8 noundef zeroext %0) #3 {
  %2 = alloca i8, align 1
  store i8 %0, ptr %2, align 1
  %3 = load i8, ptr %2, align 1
  %4 = zext i8 %3 to i32
  %5 = icmp sle i32 %4, 31
  br i1 %5, label %6, label %12

6:                                                ; preds = %1
  %7 = load i8, ptr %2, align 1
  %8 = zext i8 %7 to i32
  %9 = add i32 %8, 1
  %10 = sitofp i32 %9 to double
  %11 = fmul double %10, 0x3EB0C6F7A0B5ED8D
  br label %20

12:                                               ; preds = %1
  %13 = load i8, ptr %2, align 1
  %14 = zext i8 %13 to i32
  %15 = sub i32 255, %14
  %16 = sitofp i32 %15 to double
  %17 = fdiv double %16, 1.300000e+01
  %18 = call double @exp(double noundef %17) #6
  %19 = fdiv double 1.000000e+03, %18
  br label %20

20:                                               ; preds = %12, %6
  %21 = phi double [ %11, %6 ], [ %19, %12 ]
  ret double %21
}

; Function Attrs: nounwind null_pointer_is_valid sspstrong uwtable
define internal { i64, i32 } @usec_to_nstime(i64 noundef %0) #3 {
  %2 = alloca %struct.nstime_t, align 8
  %3 = alloca i64, align 8
  store i64 %0, ptr %3, align 8
  %4 = load i64, ptr %3, align 8
  %5 = udiv i64 %4, 1000000
  %6 = getelementptr inbounds nuw %struct.nstime_t, ptr %2, i32 0, i32 0
  store i64 %5, ptr %6, align 8
  %7 = load i64, ptr %3, align 8
  %8 = urem i64 %7, 1000000
  %9 = mul i64 %8, 1000
  %10 = trunc i64 %9 to i32
  %11 = getelementptr inbounds nuw %struct.nstime_t, ptr %2, i32 0, i32 1
  store i32 %10, ptr %11, align 8
  %12 = load { i64, i32 }, ptr %2, align 8
  ret { i64, i32 } %12
}

; Function Attrs: nounwind null_pointer_is_valid sspstrong uwtable
define internal i32 @unquantize_rate(i16 noundef zeroext %0) #3 {
  %2 = alloca i16, align 2
  %3 = alloca i32, align 4
  %4 = alloca i32, align 4
  %5 = alloca double, align 8
  store i16 %0, ptr %2, align 2
  call void @llvm.lifetime.start.p0(i64 4, ptr %3) #6
  call void @llvm.lifetime.start.p0(i64 4, ptr %4) #6
  call void @llvm.lifetime.start.p0(i64 8, ptr %5) #6
  %6 = load i16, ptr %2, align 2
  %7 = zext i16 %6 to i32
  %8 = and i32 %7, 15
  store i32 %8, ptr %3, align 4
  %9 = load i16, ptr %2, align 2
  %10 = zext i16 %9 to i32
  %11 = ashr i32 %10, 4
  %12 = sitofp i32 %11 to double
  %13 = fmul double %12, 0x3F64000000000000
  store double %13, ptr %5, align 8
  store i32 0, ptr %4, align 4
  br label %14

14:                                               ; preds = %21, %1
  %15 = load i32, ptr %4, align 4
  %16 = load i32, ptr %3, align 4
  %17 = icmp slt i32 %15, %16
  br i1 %17, label %18, label %24

18:                                               ; preds = %14
  %19 = load double, ptr %5, align 8
  %20 = fmul double %19, 1.000000e+01
  store double %20, ptr %5, align 8
  br label %21

21:                                               ; preds = %18
  %22 = load i32, ptr %4, align 4
  %23 = add i32 %22, 1
  store i32 %23, ptr %4, align 4
  br label %14, !llvm.loop !23

24:                                               ; preds = %14
  %25 = load double, ptr %5, align 8
  %26 = fptoui double %25 to i32
  call void @llvm.lifetime.end.p0(i64 8, ptr %5) #6
  call void @llvm.lifetime.end.p0(i64 4, ptr %4) #6
  call void @llvm.lifetime.end.p0(i64 4, ptr %3) #6
  ret i32 %26
}

; Function Attrs: null_pointer_is_valid sspstrong uwtable
define internal void @dissect_uftp_congctrl(ptr noundef %0, ptr noundef %1, ptr noundef %2) #0 {
  %4 = alloca ptr, align 8
  %5 = alloca ptr, align 8
  %6 = alloca ptr, align 8
  %7 = alloca ptr, align 8
  %8 = alloca ptr, align 8
  %9 = alloca ptr, align 8
  %10 = alloca ptr, align 8
  %11 = alloca ptr, align 8
  %12 = alloca ptr, align 8
  %13 = alloca i32, align 4
  %14 = alloca i32, align 4
  %15 = alloca i32, align 4
  %16 = alloca i8, align 1
  %17 = alloca i8, align 1
  %18 = alloca %struct.nstime_t, align 8
  %19 = alloca i32, align 4
  %20 = alloca %struct.nstime_t, align 8
  %21 = alloca i32, align 4
  %22 = alloca double, align 8
  store ptr %0, ptr %4, align 8
  store ptr %1, ptr %5, align 8
  store ptr %2, ptr %6, align 8
  call void @llvm.lifetime.start.p0(i64 8, ptr %7) #6
  store ptr null, ptr %7, align 8
  call void @llvm.lifetime.start.p0(i64 8, ptr %8) #6
  store ptr null, ptr %8, align 8
  call void @llvm.lifetime.start.p0(i64 8, ptr %9) #6
  store ptr null, ptr %9, align 8
  call void @llvm.lifetime.start.p0(i64 8, ptr %10) #6
  store ptr null, ptr %10, align 8
  call void @llvm.lifetime.start.p0(i64 8, ptr %11) #6
  store ptr null, ptr %11, align 8
  call void @llvm.lifetime.start.p0(i64 8, ptr %12) #6
  store ptr null, ptr %12, align 8
  call void @llvm.lifetime.start.p0(i64 4, ptr %13) #6
  store i32 0, ptr %13, align 4
  call void @llvm.lifetime.start.p0(i64 4, ptr %14) #6
  call void @llvm.lifetime.start.p0(i64 4, ptr %15) #6
  call void @llvm.lifetime.start.p0(i64 1, ptr %16) #6
  call void @llvm.lifetime.start.p0(i64 1, ptr %17) #6
  call void @llvm.lifetime.start.p0(i64 16, ptr %18) #6
  %23 = load ptr, ptr %4, align 8
  %24 = call i32 @tvb_reported_length(ptr noundef %23)
  %25 = icmp ult i32 %24, 16
  br i1 %25, label %26, label %34

26:                                               ; preds = %3
  %27 = load ptr, ptr %6, align 8
  %28 = load ptr, ptr %5, align 8
  %29 = load ptr, ptr %4, align 8
  %30 = load i32, ptr %13, align 4
  %31 = load ptr, ptr %4, align 8
  %32 = call i32 @tvb_reported_length(ptr noundef %31)
  %33 = call ptr (ptr, ptr, ptr, ptr, i32, i32, ptr, ...) @proto_tree_add_expert_format(ptr noundef %27, ptr noundef %28, ptr noundef @ei_uftp_length_invalid, ptr noundef %29, i32 noundef %30, i32 noundef -1, ptr noundef @.str.416, i32 noundef %32)
  store i32 1, ptr %19, align 4
  br label %203

34:                                               ; preds = %3
  %35 = load ptr, ptr %4, align 8
  %36 = call zeroext i8 @tvb_get_uint8(ptr noundef %35, i32 noundef 1)
  %37 = zext i8 %36 to i32
  %38 = mul i32 %37, 4
  store i32 %38, ptr %14, align 4
  %39 = load ptr, ptr %4, align 8
  %40 = call i32 @tvb_reported_length(ptr noundef %39)
  %41 = load i32, ptr %14, align 4
  %42 = icmp slt i32 %40, %41
  br i1 %42, label %46, label %43

43:                                               ; preds = %34
  %44 = load i32, ptr %14, align 4
  %45 = icmp slt i32 %44, 16
  br i1 %45, label %46, label %55

46:                                               ; preds = %43, %34
  %47 = load ptr, ptr %6, align 8
  %48 = load ptr, ptr %5, align 8
  %49 = load ptr, ptr %4, align 8
  %50 = load i32, ptr %13, align 4
  %51 = load ptr, ptr %4, align 8
  %52 = call i32 @tvb_reported_length(ptr noundef %51)
  %53 = load i32, ptr %14, align 4
  %54 = call ptr (ptr, ptr, ptr, ptr, i32, i32, ptr, ...) @proto_tree_add_expert_format(ptr noundef %47, ptr noundef %48, ptr noundef @ei_uftp_length_invalid, ptr noundef %49, i32 noundef %50, i32 noundef -1, ptr noundef @.str.417, i32 noundef %52, i32 noundef %53)
  store i32 1, ptr %19, align 4
  br label %203

55:                                               ; preds = %43
  %56 = load ptr, ptr %4, align 8
  %57 = call zeroext i16 @tvb_get_ntohs(ptr noundef %56, i32 noundef 6)
  %58 = call i32 @unquantize_rate(i16 noundef zeroext %57)
  store i32 %58, ptr %15, align 4
  %59 = load ptr, ptr %6, align 8
  %60 = load i32, ptr @hf_uftp_congctrl, align 4
  %61 = load ptr, ptr %4, align 8
  %62 = load i32, ptr %13, align 4
  %63 = call ptr @proto_tree_add_item(ptr noundef %59, i32 noundef %60, ptr noundef %61, i32 noundef %62, i32 noundef -1, i32 noundef 0)
  store ptr %63, ptr %7, align 8
  %64 = load ptr, ptr %7, align 8
  %65 = load i32, ptr @ett_uftp_congctrl, align 4
  %66 = call ptr @proto_item_add_subtree(ptr noundef %64, i32 noundef %65)
  store ptr %66, ptr %10, align 8
  %67 = load ptr, ptr %10, align 8
  %68 = load i32, ptr @hf_uftp_congctrl_func, align 4
  %69 = load ptr, ptr %4, align 8
  %70 = load i32, ptr %13, align 4
  %71 = call ptr @proto_tree_add_item(ptr noundef %67, i32 noundef %68, ptr noundef %69, i32 noundef %70, i32 noundef 1, i32 noundef 0)
  %72 = load i32, ptr %13, align 4
  %73 = add i32 %72, 1
  store i32 %73, ptr %13, align 4
  %74 = load ptr, ptr %10, align 8
  %75 = load i32, ptr @hf_uftp_congctrl_hlen, align 4
  %76 = load ptr, ptr %4, align 8
  %77 = load i32, ptr %13, align 4
  %78 = load i32, ptr %14, align 4
  %79 = load i32, ptr %14, align 4
  %80 = load i32, ptr %14, align 4
  %81 = sdiv i32 %80, 4
  %82 = call ptr (ptr, i32, ptr, i32, i32, i32, ptr, ...) @proto_tree_add_uint_format_value(ptr noundef %74, i32 noundef %75, ptr noundef %76, i32 noundef %77, i32 noundef 1, i32 noundef %78, ptr noundef @.str.418, i32 noundef %79, i32 noundef %81)
  %83 = load i32, ptr %13, align 4
  %84 = add i32 %83, 1
  store i32 %84, ptr %13, align 4
  %85 = load ptr, ptr %10, align 8
  %86 = load i32, ptr @hf_uftp_congctrl_reserved, align 4
  %87 = load ptr, ptr %4, align 8
  %88 = load i32, ptr %13, align 4
  %89 = call ptr @proto_tree_add_item(ptr noundef %85, i32 noundef %86, ptr noundef %87, i32 noundef %88, i32 noundef 2, i32 noundef 0)
  %90 = load i32, ptr %13, align 4
  %91 = add i32 %90, 2
  store i32 %91, ptr %13, align 4
  %92 = load ptr, ptr %10, align 8
  %93 = load i32, ptr @hf_uftp_congctrl_cc_seq, align 4
  %94 = load ptr, ptr %4, align 8
  %95 = load i32, ptr %13, align 4
  %96 = call ptr @proto_tree_add_item(ptr noundef %92, i32 noundef %93, ptr noundef %94, i32 noundef %95, i32 noundef 2, i32 noundef 0)
  %97 = load i32, ptr %13, align 4
  %98 = add i32 %97, 2
  store i32 %98, ptr %13, align 4
  %99 = load ptr, ptr %10, align 8
  %100 = load i32, ptr @hf_uftp_congctrl_cc_rate, align 4
  %101 = load ptr, ptr %4, align 8
  %102 = load i32, ptr %13, align 4
  %103 = load i32, ptr %15, align 4
  %104 = call ptr @proto_tree_add_uint(ptr noundef %99, i32 noundef %100, ptr noundef %101, i32 noundef %102, i32 noundef 2, i32 noundef %103)
  %105 = load i32, ptr %13, align 4
  %106 = add i32 %105, 2
  store i32 %106, ptr %13, align 4
  call void @llvm.lifetime.start.p0(i64 16, ptr %20) #6
  %107 = load ptr, ptr %4, align 8
  %108 = load i32, ptr %13, align 4
  %109 = call i64 @tvb_get_ntoh64(ptr noundef %107, i32 noundef %108)
  %110 = call { i64, i32 } @usec_to_nstime(i64 noundef %109)
  %111 = getelementptr inbounds nuw { i64, i32 }, ptr %20, i32 0, i32 0
  %112 = extractvalue { i64, i32 } %110, 0
  store i64 %112, ptr %111, align 8
  %113 = getelementptr inbounds nuw { i64, i32 }, ptr %20, i32 0, i32 1
  %114 = extractvalue { i64, i32 } %110, 1
  store i32 %114, ptr %113, align 8
  call void @llvm.memcpy.p0.p0.i64(ptr align 8 %18, ptr align 8 %20, i64 16, i1 false)
  call void @llvm.lifetime.end.p0(i64 16, ptr %20) #6
  %115 = load ptr, ptr %10, align 8
  %116 = load i32, ptr @hf_uftp_congctrl_tstamp, align 4
  %117 = load ptr, ptr %4, align 8
  %118 = load i32, ptr %13, align 4
  %119 = call ptr @proto_tree_add_time(ptr noundef %115, i32 noundef %116, ptr noundef %117, i32 noundef %118, i32 noundef 8, ptr noundef %18)
  %120 = load ptr, ptr %4, align 8
  %121 = call i32 @tvb_reported_length(ptr noundef %120)
  %122 = load i32, ptr %14, align 4
  %123 = sub i32 %121, %122
  %124 = udiv i32 %123, 8
  %125 = trunc i32 %124 to i8
  store i8 %125, ptr %16, align 1
  %126 = load i32, ptr %14, align 4
  store i32 %126, ptr %13, align 4
  %127 = load i8, ptr %16, align 1
  %128 = zext i8 %127 to i32
  %129 = icmp sgt i32 %128, 0
  br i1 %129, label %130, label %142

130:                                              ; preds = %55
  %131 = load ptr, ptr %10, align 8
  %132 = load i32, ptr @hf_uftp_congctrl_cclist, align 4
  %133 = load ptr, ptr %4, align 8
  %134 = load i32, ptr %13, align 4
  %135 = load i8, ptr %16, align 1
  %136 = zext i8 %135 to i32
  %137 = mul i32 %136, 8
  %138 = call ptr @proto_tree_add_item(ptr noundef %131, i32 noundef %132, ptr noundef %133, i32 noundef %134, i32 noundef %137, i32 noundef 0)
  store ptr %138, ptr %8, align 8
  %139 = load ptr, ptr %8, align 8
  %140 = load i32, ptr @ett_uftp_congctrl_cclist, align 4
  %141 = call ptr @proto_item_add_subtree(ptr noundef %139, i32 noundef %140)
  store ptr %141, ptr %11, align 8
  br label %142

142:                                              ; preds = %130, %55
  store i8 0, ptr %17, align 1
  br label %143

143:                                              ; preds = %199, %142
  %144 = load i8, ptr %17, align 1
  %145 = zext i8 %144 to i32
  %146 = load i8, ptr %16, align 1
  %147 = zext i8 %146 to i32
  %148 = icmp slt i32 %145, %147
  br i1 %148, label %149, label %202

149:                                              ; preds = %143
  call void @llvm.lifetime.start.p0(i64 4, ptr %21) #6
  call void @llvm.lifetime.start.p0(i64 8, ptr %22) #6
  %150 = load ptr, ptr %4, align 8
  %151 = load i32, ptr %13, align 4
  %152 = add i32 %151, 5
  %153 = call zeroext i8 @tvb_get_uint8(ptr noundef %150, i32 noundef %152)
  %154 = call double @unquantize_grtt(i8 noundef zeroext %153)
  store double %154, ptr %22, align 8
  %155 = load ptr, ptr %4, align 8
  %156 = load i32, ptr %13, align 4
  %157 = add i32 %156, 6
  %158 = call zeroext i16 @tvb_get_ntohs(ptr noundef %155, i32 noundef %157)
  %159 = call i32 @unquantize_rate(i16 noundef zeroext %158)
  store i32 %159, ptr %21, align 4
  %160 = load ptr, ptr %11, align 8
  %161 = load i32, ptr @hf_uftp_congctrl_item, align 4
  %162 = load ptr, ptr %4, align 8
  %163 = load i32, ptr %13, align 4
  %164 = call ptr @proto_tree_add_item(ptr noundef %160, i32 noundef %161, ptr noundef %162, i32 noundef %163, i32 noundef 8, i32 noundef 0)
  store ptr %164, ptr %9, align 8
  %165 = load ptr, ptr %9, align 8
  %166 = load i32, ptr @ett_uftp_congctrl_item, align 4
  %167 = call ptr @proto_item_add_subtree(ptr noundef %165, i32 noundef %166)
  store ptr %167, ptr %12, align 8
  %168 = load ptr, ptr %12, align 8
  %169 = load i32, ptr @hf_uftp_congctrl_item_destid, align 4
  %170 = load ptr, ptr %4, align 8
  %171 = load i32, ptr %13, align 4
  %172 = call ptr @proto_tree_add_item(ptr noundef %168, i32 noundef %169, ptr noundef %170, i32 noundef %171, i32 noundef 4, i32 noundef 0)
  %173 = load i32, ptr %13, align 4
  %174 = add i32 %173, 4
  store i32 %174, ptr %13, align 4
  %175 = load ptr, ptr %12, align 8
  %176 = load ptr, ptr %4, align 8
  %177 = load i32, ptr %13, align 4
  %178 = load i32, ptr @hf_uftp_congctrl_item_flags, align 4
  %179 = load i32, ptr @ett_uftp_congctrl_item_flags, align 4
  %180 = call ptr @proto_tree_add_bitmask(ptr noundef %175, ptr noundef %176, i32 noundef %177, i32 noundef %178, i32 noundef %179, ptr noundef @cc_item_flags, i32 noundef 0)
  %181 = load i32, ptr %13, align 4
  %182 = add i32 %181, 1
  store i32 %182, ptr %13, align 4
  %183 = load ptr, ptr %12, align 8
  %184 = load i32, ptr @hf_uftp_congctrl_item_rtt, align 4
  %185 = load ptr, ptr %4, align 8
  %186 = load i32, ptr %13, align 4
  %187 = load double, ptr %22, align 8
  %188 = call ptr @proto_tree_add_double(ptr noundef %183, i32 noundef %184, ptr noundef %185, i32 noundef %186, i32 noundef 1, double noundef %187)
  %189 = load i32, ptr %13, align 4
  %190 = add i32 %189, 1
  store i32 %190, ptr %13, align 4
  %191 = load ptr, ptr %12, align 8
  %192 = load i32, ptr @hf_uftp_congctrl_item_rate, align 4
  %193 = load ptr, ptr %4, align 8
  %194 = load i32, ptr %13, align 4
  %195 = load i32, ptr %21, align 4
  %196 = call ptr @proto_tree_add_uint(ptr noundef %191, i32 noundef %192, ptr noundef %193, i32 noundef %194, i32 noundef 2, i32 noundef %195)
  %197 = load i32, ptr %13, align 4
  %198 = add i32 %197, 2
  store i32 %198, ptr %13, align 4
  call void @llvm.lifetime.end.p0(i64 8, ptr %22) #6
  call void @llvm.lifetime.end.p0(i64 4, ptr %21) #6
  br label %199

199:                                              ; preds = %149
  %200 = load i8, ptr %17, align 1
  %201 = add i8 %200, 1
  store i8 %201, ptr %17, align 1
  br label %143, !llvm.loop !21

202:                                              ; preds = %143
  store i32 0, ptr %19, align 4
  br label %203

203:                                              ; preds = %202, %46, %26
  call void @llvm.lifetime.end.p0(i64 16, ptr %18) #6
  call void @llvm.lifetime.end.p0(i64 1, ptr %17) #6
  call void @llvm.lifetime.end.p0(i64 1, ptr %16) #6
  call void @llvm.lifetime.end.p0(i64 4, ptr %15) #6
  call void @llvm.lifetime.end.p0(i64 4, ptr %14) #6
  call void @llvm.lifetime.end.p0(i64 4, ptr %13) #6
  call void @llvm.lifetime.end.p0(i64 8, ptr %12) #6
  call void @llvm.lifetime.end.p0(i64 8, ptr %11) #6
  call void @llvm.lifetime.end.p0(i64 8, ptr %10) #6
  call void @llvm.lifetime.end.p0(i64 8, ptr %9) #6
  call void @llvm.lifetime.end.p0(i64 8, ptr %8) #6
  call void @llvm.lifetime.end.p0(i64 8, ptr %7) #6
  %204 = load i32, ptr %19, align 4
  switch i32 %204, label %206 [
    i32 0, label %205
    i32 1, label %205
  ]

205:                                              ; preds = %203, %203
  ret void

206:                                              ; preds = %203
  unreachable
}