; Function Attrs: null_pointer_is_valid sspstrong uwtable
define internal fastcc void @dissect_uftp_congctrl(ptr noundef %0, ptr noundef %1, ptr noundef %2) unnamed_addr #0 {
  %4 = alloca %struct.nstime_t, align 8
  call void @llvm.lifetime.start.p0(i64 16, ptr nonnull %4) #5
  %5 = tail call i32 @tvb_reported_length(ptr noundef %0)
  %6 = icmp ult i32 %5, 16
  br i1 %6, label %7, label %10

7:                                                ; preds = %3
  %8 = tail call i32 @tvb_reported_length(ptr noundef %0)
  %9 = tail call ptr (ptr, ptr, ptr, ptr, i32, i32, ptr, ...) @proto_tree_add_expert_format(ptr noundef %2, ptr noundef %1, ptr noundef nonnull @ei_uftp_length_invalid, ptr noundef %0, i32 noundef 0, i32 noundef -1, ptr noundef nonnull @.str.416, i32 noundef %8)
  br label %.loopexit

10:                                               ; preds = %3
  %11 = tail call zeroext i8 @tvb_get_uint8(ptr noundef %0, i32 noundef 1)
  %12 = zext i8 %11 to i32
  %13 = shl nuw nsw i32 %12, 2
  %14 = tail call i32 @tvb_reported_length(ptr noundef %0)
  %15 = icmp slt i32 %14, %13
  %16 = icmp ult i8 %11, 4
  %or.cond = select i1 %15, i1 true, i1 %16
  br i1 %or.cond, label %17, label %20

17:                                               ; preds = %10
  %18 = tail call i32 @tvb_reported_length(ptr noundef %0)
  %19 = tail call ptr (ptr, ptr, ptr, ptr, i32, i32, ptr, ...) @proto_tree_add_expert_format(ptr noundef %2, ptr noundef %1, ptr noundef nonnull @ei_uftp_length_invalid, ptr noundef %0, i32 noundef 0, i32 noundef -1, ptr noundef nonnull @.str.417, i32 noundef %18, i32 noundef %13)
  br label %.loopexit

20:                                               ; preds = %10
  %21 = tail call zeroext i16 @tvb_get_ntohs(ptr noundef %0, i32 noundef 6)
  %22 = zext i16 %21 to i32
  %23 = and i32 %22, 15
  %24 = lshr i32 %22, 4
  %25 = uitofp nneg i32 %24 to double
  %26 = fmul double %25, 0x3F64000000000000
  %.not.i = icmp eq i32 %23, 0
  br i1 %.not.i, label %unquantize_rate.exit, label %.lr.ph.i

.lr.ph.i:                                         ; preds = %20, %.lr.ph.i
  %.08.i = phi double [ %27, %.lr.ph.i ], [ %26, %20 ]
  %.067.i = phi i32 [ %28, %.lr.ph.i ], [ 0, %20 ]
  %27 = fmul double %.08.i, 1.000000e+01
  %28 = add nuw nsw i32 %.067.i, 1
  %exitcond.not.i = icmp eq i32 %28, %23
  br i1 %exitcond.not.i, label %unquantize_rate.exit, label %.lr.ph.i, !llvm.loop !14

unquantize_rate.exit:                             ; preds = %.lr.ph.i, %20
  %.0.lcssa.i = phi double [ %26, %20 ], [ %27, %.lr.ph.i ]
  %29 = fptoui double %.0.lcssa.i to i32
  %30 = load i32, ptr @hf_uftp_congctrl, align 4
  %31 = tail call ptr @proto_tree_add_item(ptr noundef %2, i32 noundef %30, ptr noundef %0, i32 noundef 0, i32 noundef -1, i32 noundef 0)
  %32 = load i32, ptr @ett_uftp_congctrl, align 4
  %33 = tail call ptr @proto_item_add_subtree(ptr noundef %31, i32 noundef %32)
  %34 = load i32, ptr @hf_uftp_congctrl_func, align 4
  %35 = tail call ptr @proto_tree_add_item(ptr noundef %33, i32 noundef %34, ptr noundef %0, i32 noundef 0, i32 noundef 1, i32 noundef 0)
  %36 = load i32, ptr @hf_uftp_congctrl_hlen, align 4
  %37 = tail call ptr (ptr, i32, ptr, i32, i32, i32, ptr, ...) @proto_tree_add_uint_format_value(ptr noundef %33, i32 noundef %36, ptr noundef %0, i32 noundef 1, i32 noundef 1, i32 noundef %13, ptr noundef nonnull @.str.418, i32 noundef %13, i32 noundef %12)
  %38 = load i32, ptr @hf_uftp_congctrl_reserved, align 4
  %39 = tail call ptr @proto_tree_add_item(ptr noundef %33, i32 noundef %38, ptr noundef %0, i32 noundef 2, i32 noundef 2, i32 noundef 0)
  %40 = load i32, ptr @hf_uftp_congctrl_cc_seq, align 4
  %41 = tail call ptr @proto_tree_add_item(ptr noundef %33, i32 noundef %40, ptr noundef %0, i32 noundef 4, i32 noundef 2, i32 noundef 0)
  %42 = load i32, ptr @hf_uftp_congctrl_cc_rate, align 4
  %43 = tail call ptr @proto_tree_add_uint(ptr noundef %33, i32 noundef %42, ptr noundef %0, i32 noundef 6, i32 noundef 2, i32 noundef %29)
  %44 = tail call i64 @tvb_get_ntoh64(ptr noundef %0, i32 noundef 8)
  %45 = udiv i64 %44, 1000000
  %46 = urem i64 %44, 1000000
  %47 = trunc nuw nsw i64 %46 to i32
  %48 = mul nuw nsw i32 %47, 1000
  store i64 %45, ptr %4, align 8
  %.sroa.4.0..sroa_idx = getelementptr inbounds nuw i8, ptr %4, i64 8
  store i32 %48, ptr %.sroa.4.0..sroa_idx, align 8
  %49 = load i32, ptr @hf_uftp_congctrl_tstamp, align 4
  %50 = call ptr @proto_tree_add_time(ptr noundef %33, i32 noundef %49, ptr noundef %0, i32 noundef 8, i32 noundef 8, ptr noundef nonnull %4)
  %51 = call i32 @tvb_reported_length(ptr noundef %0)
  %52 = sub i32 %51, %13
  %53 = lshr i32 %52, 3
  %54 = and i32 %53, 255
  %.not = icmp eq i32 %54, 0
  br i1 %.not, label %.loopexit, label %.lr.ph.preheader

.lr.ph.preheader:                                 ; preds = %unquantize_rate.exit
  %55 = load i32, ptr @hf_uftp_congctrl_cclist, align 4
  %56 = shl nuw nsw i32 %54, 3
  %57 = call ptr @proto_tree_add_item(ptr noundef %33, i32 noundef %55, ptr noundef %0, i32 noundef %13, i32 noundef %56, i32 noundef 0)
  %58 = load i32, ptr @ett_uftp_congctrl_cclist, align 4
  %59 = call ptr @proto_item_add_subtree(ptr noundef %57, i32 noundef %58)
  br label %.lr.ph

.lr.ph:                                           ; preds = %.lr.ph.preheader, %unquantize_rate.exit98
  %indvars.iv = phi i32 [ 0, %.lr.ph.preheader ], [ %indvars.iv.next, %unquantize_rate.exit98 ]
  %.089100 = phi i32 [ %13, %.lr.ph.preheader ], [ %99, %unquantize_rate.exit98 ]
  %60 = add nuw nsw i32 %.089100, 5
  %61 = call zeroext i8 @tvb_get_uint8(ptr noundef %0, i32 noundef %60)
  %62 = zext i8 %61 to i32
  %63 = icmp ult i8 %61, 32
  br i1 %63, label %64, label %68

64:                                               ; preds = %.lr.ph
  %65 = add nuw nsw i32 %62, 1
  %66 = uitofp nneg i32 %65 to double
  %67 = fmul double %66, 0x3EB0C6F7A0B5ED8D
  br label %unquantize_grtt.exit

68:                                               ; preds = %.lr.ph
  %69 = xor i32 %62, 255
  %70 = uitofp nneg i32 %69 to double
  %71 = fdiv double %70, 1.300000e+01
  %72 = call double @exp(double noundef %71) #5
  %73 = fdiv double 1.000000e+03, %72
  br label %unquantize_grtt.exit

unquantize_grtt.exit:                             ; preds = %64, %68
  %74 = phi double [ %67, %64 ], [ %73, %68 ]
  %75 = add nuw nsw i32 %.089100, 6
  %76 = call zeroext i16 @tvb_get_ntohs(ptr noundef %0, i32 noundef %75)
  %77 = zext i16 %76 to i32
  %78 = and i32 %77, 15
  %79 = lshr i32 %77, 4
  %80 = uitofp nneg i32 %79 to double
  %81 = fmul double %80, 0x3F64000000000000
  %.not.i92 = icmp eq i32 %78, 0
  br i1 %.not.i92, label %unquantize_rate.exit98, label %.lr.ph.i93

.lr.ph.i93:                                       ; preds = %unquantize_grtt.exit, %.lr.ph.i93
  %.08.i94 = phi double [ %82, %.lr.ph.i93 ], [ %81, %unquantize_grtt.exit ]
  %.067.i95 = phi i32 [ %83, %.lr.ph.i93 ], [ 0, %unquantize_grtt.exit ]
  %82 = fmul double %.08.i94, 1.000000e+01
  %83 = add nuw nsw i32 %.067.i95, 1
  %exitcond.not.i96 = icmp eq i32 %83, %78
  br i1 %exitcond.not.i96, label %unquantize_rate.exit98, label %.lr.ph.i93, !llvm.loop !14

unquantize_rate.exit98:                           ; preds = %.lr.ph.i93, %unquantize_grtt.exit
  %.0.lcssa.i97 = phi double [ %81, %unquantize_grtt.exit ], [ %82, %.lr.ph.i93 ]
  %84 = fptoui double %.0.lcssa.i97 to i32
  %85 = load i32, ptr @hf_uftp_congctrl_item, align 4
  %86 = call ptr @proto_tree_add_item(ptr noundef %59, i32 noundef %85, ptr noundef %0, i32 noundef %.089100, i32 noundef 8, i32 noundef 0)
  %87 = load i32, ptr @ett_uftp_congctrl_item, align 4
  %88 = call ptr @proto_item_add_subtree(ptr noundef %86, i32 noundef %87)
  %89 = load i32, ptr @hf_uftp_congctrl_item_destid, align 4
  %90 = call ptr @proto_tree_add_item(ptr noundef %88, i32 noundef %89, ptr noundef %0, i32 noundef %.089100, i32 noundef 4, i32 noundef 0)
  %91 = add nuw nsw i32 %.089100, 4
  %92 = load i32, ptr @hf_uftp_congctrl_item_flags, align 4
  %93 = load i32, ptr @ett_uftp_congctrl_item_flags, align 4
  %94 = call ptr @proto_tree_add_bitmask(ptr noundef %88, ptr noundef %0, i32 noundef %91, i32 noundef %92, i32 noundef %93, ptr noundef nonnull @cc_item_flags, i32 noundef 0)
  %95 = load i32, ptr @hf_uftp_congctrl_item_rtt, align 4
  %96 = call ptr @proto_tree_add_double(ptr noundef %88, i32 noundef %95, ptr noundef %0, i32 noundef %60, i32 noundef 1, double noundef %74)
  %97 = load i32, ptr @hf_uftp_congctrl_item_rate, align 4
  %98 = call ptr @proto_tree_add_uint(ptr noundef %88, i32 noundef %97, ptr noundef %0, i32 noundef %75, i32 noundef 2, i32 noundef %84)
  %99 = add nuw nsw i32 %.089100, 8
  %indvars.iv.next = add nuw nsw i32 %indvars.iv, 1
  %exitcond.not = icmp eq i32 %indvars.iv.next, %54
  br i1 %exitcond.not, label %.loopexit, label %.lr.ph, !llvm.loop !18

.loopexit:                                        ; preds = %unquantize_rate.exit98, %unquantize_rate.exit, %17, %7
  call void @llvm.lifetime.end.p0(i64 16, ptr nonnull %4) #5
  ret void
}